(dp0
S'nStages'
p1
I1000
sS'ParamFileName'
p2
S'../results/UrbanSituation/UrbanSituation_parameters.p'
p3
sS'deafCommunityWeight'
p4
I4
sS'FolderName'
p5
S'../results/UrbanSituation/'
p6
sS'compoundWeight'
p7
I1
sS'CulturalInheritance'
p8
S'Patrilineal'
p9
sS'maxNumberOfBirthDeathEachStage'
p10
I3
sS'marriageAttitudes_deaf_deaf'
p11
F0.875
sS'genderWeight'
p12
I1
sS'maxWeight'
p13
I8
sS'clanWeightMarry'
p14
I2
sS'MaxSizeCompounds'
p15
I6
sS'proportionOfMarriedAgentsDeaf'
p16
F0.295
sS'nManualSigns'
p17
I10
sS'marriageAttitudes_deaf_hearing'
p18
F0.125
sS'marriageAttitudes_hearing_hearing'
p19
F0.9987
sS'clanWeight'
p20
I1
sS'MarriageLocality'
p21
S'Patrilocal'
p22
sS'compoundWeightMarry'
p23
I0
sS'maxNumberOfMarriagePartners'
p24
I1
sS'nSimulations'
p25
I10
sS'ResultsFileName'
p26
S'../results/UrbanSituation/UrbanSituation602.res'
p27
sS'nSpokenSigns'
p28
I10
sS'nAgents'
p29
I3000
sS'marriageAttitudes'
p30
(dp31
I00
(dp32
I00
F0.9987
sI01
F0.0013
ssI01
(dp33
I00
F0.125
sI01
F0.875
sssS'nClans'
p34
I10
sS'alpha'
p35
F0.9
sS'gDom'
p36
F0.001
sS'probOfBirthDeathEachStage'
p37
F0.99
sS'Number'
p38
I13
sS'RunName'
p39
S'UrbanSituation'
p40
sS'gCarry'
p41
I0
sS'MarryOutsiders'
p42
S'TRUE'
p43
sS'proportionOfMarriedAgents'
p44
F0.64
sS'comSimilarityMarry'
p45
I1
sS'marriageAttitudes_hearing_deaf'
p46
F0.0013
sS'deafCommunityWeightMarry'
p47
I1
s.