(dp0
S'nStages'
p1
I1000
sS'ParamFileName'
p2
S'../results/UrbanSituation/UrbanSituation_parameters.p'
p3
sS'deafCommunityWeight'
p4
I4
sS'FolderName'
p5
S'../results/UrbanSituation/'
p6
sS'compoundWeight'
p7
I1
sS'CulturalInheritance'
p8
S'Patrilineal'
p9
sS'maxNumberOfBirthDeathEachStage'
p10
I3
sS'marriageAttitudes_deaf_deaf'
p11
F0.875
sS'genderWeight'
p12
I1
sS'maxWeight'
p13
I8
sS'MaxSizeCompounds'
p14
I6
sS'proportionOfMarriedAgentsDeaf'
p15
F0.295
sS'nManualSigns'
p16
I10
sS'marriageAttitudes_deaf_hearing'
p17
F0.125
sS'marriageAttitudes_hearing_hearing'
p18
F0.9987
sS'clanWeight'
p19
I1
sS'MarriageLocality'
p20
S'Patrilocal'
p21
sS'maxNumberOfMarriagePartners'
p22
I1
sS'nSimulations'
p23
I10
sS'ResultsFileName'
p24
S'../results/UrbanSituation/UrbanSituation333.res'
p25
sS'nSpokenSigns'
p26
I10
sS'nAgents'
p27
I4000
sS'marriageAttitudes'
p28
(dp29
I00
(dp30
I00
F0.9987
sI01
F0.0013
ssI01
(dp31
I00
F0.125
sI01
F0.875
sssS'nClans'
p32
I10
sS'alpha'
p33
F0.9
sS'gDom'
p34
F0.001
sS'probOfBirthDeathEachStage'
p35
F0.99
sS'Number'
p36
I13
sS'RunName'
p37
S'UrbanSituation'
p38
sS'gCarry'
p39
I0
sS'MarryOutsiders'
p40
S'TRUE'
p41
sS'proportionOfMarriedAgents'
p42
F0.64
sS'marriageAttitudes_hearing_deaf'
p43
F0.0013
s.