(dp0
S'nStages'
p1
I1000
sS'ParamFileName'
p2
S'../results/KK_NoSocialStructure/KK_NoSocialStructure_parameters.p'
p3
sS'deafCommunityWeight'
p4
I0
sS'FolderName'
p5
S'../results/KK_NoSocialStructure/'
p6
sS'compoundWeight'
p7
I0
sS'CulturalInheritance'
p8
S'Patrilineal'
p9
sS'maxNumberOfBirthDeathEachStage'
p10
I3
sS'marriageAttitudes_deaf_deaf'
p11
F0.875
sS'genderWeight'
p12
I0
sS'maxWeight'
p13
I1
sS'clanWeightMarry'
p14
I2
sS'MaxSizeCompounds'
p15
I25
sS'proportionOfMarriedAgentsDeaf'
p16
F0.85
sS'nManualSigns'
p17
I10
sS'marriageAttitudes_deaf_hearing'
p18
F0.125
sS'marriageAttitudes_hearing_hearing'
p19
F0.9987
sS'clanWeight'
p20
I0
sS'MarriageLocality'
p21
S'Patrilocal'
p22
sS'compoundWeightMarry'
p23
I0
sS'maxNumberOfMarriagePartners'
p24
I1
sS'nSimulations'
p25
I10
sS'ResultsFileName'
p26
S'../results/KK_NoSocialStructure/KK_NoSocialStructure460.res'
p27
sS'nSpokenSigns'
p28
I10
sS'nAgents'
p29
I2188
sS'marriageAttitudes'
p30
(dp31
I00
(dp32
I00
F0.9987
sI01
F0.0013
ssI01
(dp33
I00
F0.125
sI01
F0.875
sssS'nClans'
p34
I10
sS'alpha'
p35
F0.9
sS'gDom'
p36
F0.022
sS'probOfBirthDeathEachStage'
p37
F0.99
sS'Number'
p38
I10
sS'RunName'
p39
S'KK_NoSocialStructure'
p40
sS'gCarry'
p41
F0.176
sS'MarryOutsiders'
p42
S'FALSE'
p43
sS'proportionOfMarriedAgents'
p44
F0.64
sS'comSimilarityMarry'
p45
I1
sS'marriageAttitudes_hearing_deaf'
p46
F0.0013
sS'deafCommunityWeightMarry'
p47
I1
s.