(dp0
S'nStages'
p1
I1000
sS'ParamFileName'
p2
S'../results/KK_DeafMarriageTabooMax/KK_DeafMarriageTabooMax_parameters.p'
p3
sS'deafCommunityWeight'
p4
I1
sS'FolderName'
p5
S'../results/KK_DeafMarriageTabooMax/'
p6
sS'compoundWeight'
p7
I4
sS'CulturalInheritance'
p8
S'Patrilineal'
p9
sS'maxNumberOfBirthDeathEachStage'
p10
I3
sS'marriageAttitudes_deaf_deaf'
p11
I0
sS'genderWeight'
p12
I2
sS'maxWeight'
p13
I11
sS'MaxSizeCompounds'
p14
I25
sS'proportionOfMarriedAgentsDeaf'
p15
I0
sS'nManualSigns'
p16
I10
sS'marriageAttitudes_deaf_hearing'
p17
I1
sS'marriageAttitudes_hearing_hearing'
p18
I0
sS'clanWeight'
p19
I3
sS'MarriageLocality'
p20
S'Patrilocal'
p21
sS'maxNumberOfMarriagePartners'
p22
I1
sS'nSimulations'
p23
I10
sS'ResultsFileName'
p24
S'../results/KK_DeafMarriageTabooMax/KK_DeafMarriageTabooMax965.res'
p25
sS'nSpokenSigns'
p26
I10
sS'nAgents'
p27
I2189
sS'marriageAttitudes'
p28
(dp29
I00
(dp30
I00
I0
sI01
I0
ssI01
(dp31
I00
I1
sI01
I0
sssS'nClans'
p32
I10
sS'alpha'
p33
I0
sS'gDom'
p34
I0
sS'probOfBirthDeathEachStage'
p35
I0
sS'Number'
p36
I5
sS'RunName'
p37
S'KK_DeafMarriageTabooMax'
p38
sS'gCarry'
p39
I0
sS'MarryOutsiders'
p40
S'False'
p41
sS'proportionOfMarriedAgents'
p42
I0
sS'marriageAttitudes_hearing_deaf'
p43
I0
s.